; ModuleID = '7/1089.c'
source_filename = "7/1089.c"
target datalayout = "e-m:e-p270:32:32-p271:32:32-p272:64:64-i64:64-f80:128-n8:16:32:64-S128"
target triple = "x86_64-pc-linux-gnu"

@.str = private unnamed_addr constant [3 x i8] c"%s\00", align 1

; Function Attrs: noinline nounwind uwtable
define dso_local i32 @main() #0 {
  %1 = alloca i32, align 4
  %2 = alloca i32, align 4
  %3 = alloca i32, align 4
  %4 = alloca i32, align 4
  %5 = alloca i32, align 4
  %6 = alloca i32, align 4
  %7 = alloca i32, align 4
  %8 = alloca [257 x i8], align 16
  %9 = alloca [257 x i8], align 16
  %10 = alloca [257 x i8], align 16
  store i32 0, i32* %1, align 4
  %11 = getelementptr inbounds [257 x i8], [257 x i8]* %10, i64 0, i64 0
  %12 = call i32 (i8*, ...) @__isoc99_scanf(i8* getelementptr inbounds ([3 x i8], [3 x i8]* @.str, i64 0, i64 0), i8* %11)
  %13 = getelementptr inbounds [257 x i8], [257 x i8]* %9, i64 0, i64 0
  %14 = call i32 (i8*, ...) @__isoc99_scanf(i8* getelementptr inbounds ([3 x i8], [3 x i8]* @.str, i64 0, i64 0), i8* %13)
  %15 = getelementptr inbounds [257 x i8], [257 x i8]* %8, i64 0, i64 0
  %16 = call i32 (i8*, ...) @__isoc99_scanf(i8* getelementptr inbounds ([3 x i8], [3 x i8]* @.str, i64 0, i64 0), i8* %15)
  %17 = getelementptr inbounds [257 x i8], [257 x i8]* %9, i64 0, i64 0
  %18 = call i64 @strlen(i8* %17) #3
  %19 = trunc i64 %18 to i32
  store i32 %19, i32* %2, align 4
  store i32 0, i32* %7, align 4
  store i32 0, i32* %3, align 4
  br label %20

20:                                               ; preds = %91, %0
  %21 = load i32, i32* %3, align 4
  %22 = sext i32 %21 to i64
  %23 = getelementptr inbounds [257 x i8], [257 x i8]* %10, i64 0, i64 %22
  %24 = load i8, i8* %23, align 1
  %25 = icmp ne i8 %24, 0
  br i1 %25, label %26, label %94

26:                                               ; preds = %20
  %27 = load i32, i32* %3, align 4
  %28 = sext i32 %27 to i64
  %29 = getelementptr inbounds [257 x i8], [257 x i8]* %10, i64 0, i64 %28
  %30 = load i8, i8* %29, align 1
  %31 = sext i8 %30 to i32
  %32 = getelementptr inbounds [257 x i8], [257 x i8]* %9, i64 0, i64 0
  %33 = load i8, i8* %32, align 16
  %34 = sext i8 %33 to i32
  %35 = icmp eq i32 %31, %34
  br i1 %35, label %36, label %90

36:                                               ; preds = %26
  store i32 0, i32* %5, align 4
  store i32 0, i32* %4, align 4
  br label %37

37:                                               ; preds = %59, %36
  %38 = load i32, i32* %4, align 4
  %39 = load i32, i32* %2, align 4
  %40 = icmp slt i32 %38, %39
  br i1 %40, label %41, label %62

41:                                               ; preds = %37
  %42 = load i32, i32* %3, align 4
  %43 = load i32, i32* %4, align 4
  %44 = add nsw i32 %42, %43
  %45 = sext i32 %44 to i64
  %46 = getelementptr inbounds [257 x i8], [257 x i8]* %10, i64 0, i64 %45
  %47 = load i8, i8* %46, align 1
  %48 = sext i8 %47 to i32
  %49 = load i32, i32* %4, align 4
  %50 = sext i32 %49 to i64
  %51 = getelementptr inbounds [257 x i8], [257 x i8]* %9, i64 0, i64 %50
  %52 = load i8, i8* %51, align 1
  %53 = sext i8 %52 to i32
  %54 = icmp eq i32 %48, %53
  br i1 %54, label %55, label %58

55:                                               ; preds = %41
  %56 = load i32, i32* %5, align 4
  %57 = add nsw i32 %56, 1
  store i32 %57, i32* %5, align 4
  br label %58

58:                                               ; preds = %55, %41
  br label %59

59:                                               ; preds = %58
  %60 = load i32, i32* %4, align 4
  %61 = add nsw i32 %60, 1
  store i32 %61, i32* %4, align 4
  br label %37

62:                                               ; preds = %37
  %63 = load i32, i32* %5, align 4
  %64 = load i32, i32* %2, align 4
  %65 = icmp eq i32 %63, %64
  br i1 %65, label %66, label %89

66:                                               ; preds = %62
  %67 = load i32, i32* %7, align 4
  %68 = add nsw i32 %67, 1
  store i32 %68, i32* %7, align 4
  store i32 0, i32* %6, align 4
  br label %69

69:                                               ; preds = %83, %66
  %70 = load i32, i32* %6, align 4
  %71 = load i32, i32* %2, align 4
  %72 = icmp slt i32 %70, %71
  br i1 %72, label %73, label %86

73:                                               ; preds = %69
  %74 = load i32, i32* %6, align 4
  %75 = sext i32 %74 to i64
  %76 = getelementptr inbounds [257 x i8], [257 x i8]* %8, i64 0, i64 %75
  %77 = load i8, i8* %76, align 1
  %78 = load i32, i32* %3, align 4
  %79 = load i32, i32* %6, align 4
  %80 = add nsw i32 %78, %79
  %81 = sext i32 %80 to i64
  %82 = getelementptr inbounds [257 x i8], [257 x i8]* %10, i64 0, i64 %81
  store i8 %77, i8* %82, align 1
  br label %83

83:                                               ; preds = %73
  %84 = load i32, i32* %6, align 4
  %85 = add nsw i32 %84, 1
  store i32 %85, i32* %6, align 4
  br label %69

86:                                               ; preds = %69
  %87 = getelementptr inbounds [257 x i8], [257 x i8]* %10, i64 0, i64 0
  %88 = call i32 (i8*, ...) @printf(i8* getelementptr inbounds ([3 x i8], [3 x i8]* @.str, i64 0, i64 0), i8* %87)
  br label %94

89:                                               ; preds = %62
  br label %90

90:                                               ; preds = %89, %26
  br label %91

91:                                               ; preds = %90
  %92 = load i32, i32* %3, align 4
  %93 = add nsw i32 %92, 1
  store i32 %93, i32* %3, align 4
  br label %20

94:                                               ; preds = %86, %20
  %95 = load i32, i32* %7, align 4
  %96 = icmp eq i32 %95, 0
  br i1 %96, label %97, label %100

97:                                               ; preds = %94
  %98 = getelementptr inbounds [257 x i8], [257 x i8]* %10, i64 0, i64 0
  %99 = call i32 (i8*, ...) @printf(i8* getelementptr inbounds ([3 x i8], [3 x i8]* @.str, i64 0, i64 0), i8* %98)
  br label %100

100:                                              ; preds = %97, %94
  ret i32 0
}

declare dso_local i32 @__isoc99_scanf(i8*, ...) #1

; Function Attrs: nounwind readonly
declare dso_local i64 @strlen(i8*) #2

declare dso_local i32 @printf(i8*, ...) #1


!llvm.module.flags = !{!0}
!llvm.ident = !{!1}

!0 = !{i32 1, !"wchar_size", i32 4}
!1 = !{!"clang version 10.0.0-4ubuntu1 "}
